target datalayout = "e-m:e-p270:32:32-p271:32:32-p272:64:64-i64:64-i128:128-f80:128-n8:16:32:64-S128"
target triple = "x86_64-pc-linux-gnu"

%struct.mbedtls_ecjpake_context = type { i32, %struct.mbedtls_ecp_group, i32, i32, %struct.mbedtls_ecp_point, %struct.mbedtls_ecp_point, %struct.mbedtls_ecp_point, %struct.mbedtls_ecp_point, %struct.mbedtls_ecp_point, %struct.mbedtls_mpi, %struct.mbedtls_mpi, %struct.mbedtls_mpi }
%struct.mbedtls_ecp_group = type { i32, %struct.mbedtls_mpi, %struct.mbedtls_mpi, %struct.mbedtls_mpi, %struct.mbedtls_ecp_point, %struct.mbedtls_mpi, i64, i64, i32, ptr, ptr, ptr, ptr, ptr, i64 }
%struct.mbedtls_ecp_point = type { %struct.mbedtls_mpi, %struct.mbedtls_mpi, %struct.mbedtls_mpi }
%struct.mbedtls_mpi = type { ptr, i16, i16 }

@ecjpake_id = internal constant [2 x ptr] [ptr @.str.6, ptr @.str.7], align 16

; Function Attrs: nounwind uwtable
define internal i32 @ecjpake_ecp_add3(ptr noundef %0, ptr noundef %1, ptr noundef %2, ptr noundef %3, ptr noundef %4) #0 {
  %6 = alloca ptr, align 8
  %7 = alloca ptr, align 8
  %8 = alloca ptr, align 8
  %9 = alloca ptr, align 8
  %10 = alloca ptr, align 8
  %11 = alloca i32, align 4
  %12 = alloca %struct.mbedtls_mpi, align 8
  store ptr %0, ptr %6, align 8, !tbaa !26
  store ptr %1, ptr %7, align 8, !tbaa !28
  store ptr %2, ptr %8, align 8, !tbaa !28
  store ptr %3, ptr %9, align 8, !tbaa !28
  store ptr %4, ptr %10, align 8, !tbaa !28
  call void @llvm.lifetime.start.p0(i64 4, ptr %11) #9
  store i32 -110, ptr %11, align 4, !tbaa !19
  call void @llvm.lifetime.start.p0(i64 16, ptr %12) #9
  call void @mbedtls_mpi_init(ptr noundef %12)
  br label %13

13:                                               ; preds = %5
  %14 = call i32 @mbedtls_mpi_lset(ptr noundef %12, i64 noundef 1)
  store i32 %14, ptr %11, align 4, !tbaa !19
  %15 = icmp ne i32 %14, 0
  br i1 %15, label %16, label %17

16:                                               ; preds = %13
  br label %42

17:                                               ; preds = %13
  br label %18

18:                                               ; preds = %17
  br label %19

19:                                               ; preds = %18
  br label %20

20:                                               ; preds = %19
  %21 = load ptr, ptr %6, align 8, !tbaa !26
  %22 = load ptr, ptr %7, align 8, !tbaa !28
  %23 = load ptr, ptr %8, align 8, !tbaa !28
  %24 = load ptr, ptr %9, align 8, !tbaa !28
  %25 = call i32 @mbedtls_ecp_muladd(ptr noundef %21, ptr noundef %22, ptr noundef %12, ptr noundef %23, ptr noundef %12, ptr noundef %24)
  store i32 %25, ptr %11, align 4, !tbaa !19
  %26 = icmp ne i32 %25, 0
  br i1 %26, label %27, label %28

27:                                               ; preds = %20
  br label %42

28:                                               ; preds = %20
  br label %29

29:                                               ; preds = %28
  br label %30

30:                                               ; preds = %29
  br label %31

31:                                               ; preds = %30
  %32 = load ptr, ptr %6, align 8, !tbaa !26
  %33 = load ptr, ptr %7, align 8, !tbaa !28
  %34 = load ptr, ptr %7, align 8, !tbaa !28
  %35 = load ptr, ptr %10, align 8, !tbaa !28
  %36 = call i32 @mbedtls_ecp_muladd(ptr noundef %32, ptr noundef %33, ptr noundef %12, ptr noundef %34, ptr noundef %12, ptr noundef %35)
  store i32 %36, ptr %11, align 4, !tbaa !19
  %37 = icmp ne i32 %36, 0
  br i1 %37, label %38, label %39

38:                                               ; preds = %31
  br label %42

39:                                               ; preds = %31
  br label %40

40:                                               ; preds = %39
  br label %41

41:                                               ; preds = %40
  br label %42

42:                                               ; preds = %41, %38, %27, %16
  call void @mbedtls_mpi_free(ptr noundef %12)
  %43 = load i32, ptr %11, align 4, !tbaa !19
  call void @llvm.lifetime.end.p0(i64 16, ptr %12) #9
  call void @llvm.lifetime.end.p0(i64 4, ptr %11) #9
  ret i32 %43
}

; Function Attrs: nounwind uwtable
define hidden i32 @mbedtls_ecjpake_read_round_two(ptr noundef %0, ptr noundef %1, i64 noundef %2) #0 {
  %4 = alloca ptr, align 8
  %5 = alloca ptr, align 8
  %6 = alloca i64, align 8
  %7 = alloca i32, align 4
  %8 = alloca ptr, align 8
  %9 = alloca ptr, align 8
  %10 = alloca %struct.mbedtls_ecp_group, align 8
  %11 = alloca %struct.mbedtls_ecp_point, align 8
  store ptr %0, ptr %4, align 8, !tbaa !3
  store ptr %1, ptr %5, align 8, !tbaa !20
  store i64 %2, ptr %6, align 8, !tbaa !22
  call void @llvm.lifetime.start.p0(i64 4, ptr %7) #9
  store i32 -110, ptr %7, align 4, !tbaa !19
  call void @llvm.lifetime.start.p0(i64 8, ptr %8) #9
  %12 = load ptr, ptr %5, align 8, !tbaa !20
  store ptr %12, ptr %8, align 8, !tbaa !20
  call void @llvm.lifetime.start.p0(i64 8, ptr %9) #9
  %13 = load ptr, ptr %5, align 8, !tbaa !20
  %14 = load i64, ptr %6, align 8, !tbaa !22
  %15 = getelementptr inbounds nuw i8, ptr %13, i64 %14
  store ptr %15, ptr %9, align 8, !tbaa !20
  call void @llvm.lifetime.start.p0(i64 192, ptr %10) #9
  call void @llvm.lifetime.start.p0(i64 48, ptr %11) #9
  call void @mbedtls_ecp_group_init(ptr noundef %10)
  call void @mbedtls_ecp_point_init(ptr noundef %11)
  br label %16

16:                                               ; preds = %3
  %17 = load ptr, ptr %4, align 8, !tbaa !3
  %18 = getelementptr inbounds nuw %struct.mbedtls_ecjpake_context, ptr %17, i32 0, i32 1
  %19 = load ptr, ptr %4, align 8, !tbaa !3
  %20 = getelementptr inbounds nuw %struct.mbedtls_ecjpake_context, ptr %19, i32 0, i32 4
  %21 = load ptr, ptr %4, align 8, !tbaa !3
  %22 = getelementptr inbounds nuw %struct.mbedtls_ecjpake_context, ptr %21, i32 0, i32 5
  %23 = load ptr, ptr %4, align 8, !tbaa !3
  %24 = getelementptr inbounds nuw %struct.mbedtls_ecjpake_context, ptr %23, i32 0, i32 6
  %25 = call i32 @ecjpake_ecp_add3(ptr noundef %18, ptr noundef %11, ptr noundef %20, ptr noundef %22, ptr noundef %24)
  store i32 %25, ptr %7, align 4, !tbaa !19
  %26 = icmp ne i32 %25, 0
  br i1 %26, label %27, label %28

27:                                               ; preds = %16
  br label %84

28:                                               ; preds = %16
  br label %29

29:                                               ; preds = %28
  br label %30

30:                                               ; preds = %29
  %31 = load ptr, ptr %4, align 8, !tbaa !3
  %32 = getelementptr inbounds nuw %struct.mbedtls_ecjpake_context, ptr %31, i32 0, i32 2
  %33 = load i32, ptr %32, align 8, !tbaa !23
  %34 = icmp eq i32 %33, 0
  br i1 %34, label %35, label %53

35:                                               ; preds = %30
  br label %36

36:                                               ; preds = %35
  %37 = load i64, ptr %6, align 8, !tbaa !22
  %38 = call i32 @mbedtls_ecp_tls_read_group(ptr noundef %10, ptr noundef %8, i64 noundef %37)
  store i32 %38, ptr %7, align 4, !tbaa !19
  %39 = icmp ne i32 %38, 0
  br i1 %39, label %40, label %41

40:                                               ; preds = %36
  br label %84

41:                                               ; preds = %36
  br label %42

42:                                               ; preds = %41
  br label %43

43:                                               ; preds = %42
  %44 = getelementptr inbounds nuw %struct.mbedtls_ecp_group, ptr %10, i32 0, i32 0
  %45 = load i32, ptr %44, align 8, !tbaa !33
  %46 = load ptr, ptr %4, align 8, !tbaa !3
  %47 = getelementptr inbounds nuw %struct.mbedtls_ecjpake_context, ptr %46, i32 0, i32 1
  %48 = getelementptr inbounds nuw %struct.mbedtls_ecp_group, ptr %47, i32 0, i32 0
  %49 = load i32, ptr %48, align 8, !tbaa !24
  %50 = icmp ne i32 %45, %49
  br i1 %50, label %51, label %52

51:                                               ; preds = %43
  store i32 -20096, ptr %7, align 4, !tbaa !19
  br label %84

52:                                               ; preds = %43
  br label %53

53:                                               ; preds = %52, %30
  br label %54

54:                                               ; preds = %53
  %55 = load ptr, ptr %4, align 8, !tbaa !3
  %56 = getelementptr inbounds nuw %struct.mbedtls_ecjpake_context, ptr %55, i32 0, i32 0
  %57 = load i32, ptr %56, align 8, !tbaa !8
  %58 = load ptr, ptr %4, align 8, !tbaa !3
  %59 = getelementptr inbounds nuw %struct.mbedtls_ecjpake_context, ptr %58, i32 0, i32 1
  %60 = load ptr, ptr %4, align 8, !tbaa !3
  %61 = getelementptr inbounds nuw %struct.mbedtls_ecjpake_context, ptr %60, i32 0, i32 3
  %62 = load i32, ptr %61, align 4, !tbaa !18
  %63 = load ptr, ptr %4, align 8, !tbaa !3
  %64 = getelementptr inbounds nuw %struct.mbedtls_ecjpake_context, ptr %63, i32 0, i32 8
  %65 = load ptr, ptr %4, align 8, !tbaa !3
  %66 = getelementptr inbounds nuw %struct.mbedtls_ecjpake_context, ptr %65, i32 0, i32 2
  %67 = load i32, ptr %66, align 8, !tbaa !23
  %68 = sub i32 1, %67
  %69 = zext i32 %68 to i64
  %70 = getelementptr inbounds nuw [2 x ptr], ptr @ecjpake_id, i64 0, i64 %69
  %71 = load ptr, ptr %70, align 8, !tbaa !20
  %72 = load ptr, ptr %9, align 8, !tbaa !20
  %73 = call i32 @ecjpake_kkp_read(i32 noundef %57, ptr noundef %59, i32 noundef %62, ptr noundef %11, ptr noundef %64, ptr noundef %71, ptr noundef %8, ptr noundef %72)
  store i32 %73, ptr %7, align 4, !tbaa !19
  %74 = icmp ne i32 %73, 0
  br i1 %74, label %75, label %76

75:                                               ; preds = %54
  br label %84

76:                                               ; preds = %54
  br label %77

77:                                               ; preds = %76
  br label %78

78:                                               ; preds = %77
  %79 = load ptr, ptr %8, align 8, !tbaa !20
  %80 = load ptr, ptr %9, align 8, !tbaa !20
  %81 = icmp ne ptr %79, %80
  br i1 %81, label %82, label %83

82:                                               ; preds = %78
  store i32 -20352, ptr %7, align 4, !tbaa !19
  br label %84

83:                                               ; preds = %78
  br label %84

84:                                               ; preds = %83, %82, %75, %51, %40, %27
  call void @mbedtls_ecp_group_free(ptr noundef %10)
  call void @mbedtls_ecp_point_free(ptr noundef %11)
  %85 = load i32, ptr %7, align 4, !tbaa !19
  call void @llvm.lifetime.end.p0(i64 48, ptr %11) #9
  call void @llvm.lifetime.end.p0(i64 192, ptr %10) #9
  call void @llvm.lifetime.end.p0(i64 8, ptr %9) #9
  call void @llvm.lifetime.end.p0(i64 8, ptr %8) #9
  call void @llvm.lifetime.end.p0(i64 4, ptr %7) #9
  ret i32 %85
}