; Function Attrs: nounwind uwtable
define hidden i32 @mbedtls_ecjpake_read_round_two(ptr noundef %0, ptr noundef %1, i64 noundef %2) local_unnamed_addr #0 {
  %4 = alloca %struct.mbedtls_mpi, align 8
  %5 = alloca ptr, align 8
  %6 = alloca %struct.mbedtls_ecp_group, align 8
  %7 = alloca %struct.mbedtls_ecp_point, align 8
  call void @llvm.lifetime.start.p0(i64 8, ptr nonnull %5) #15
  store ptr %1, ptr %5, align 8, !tbaa !20
  %8 = getelementptr inbounds nuw i8, ptr %1, i64 %2
  call void @llvm.lifetime.start.p0(i64 192, ptr nonnull %6) #15
  call void @llvm.lifetime.start.p0(i64 48, ptr nonnull %7) #15
  call void @mbedtls_ecp_group_init(ptr noundef nonnull %6) #15
  call void @mbedtls_ecp_point_init(ptr noundef nonnull %7) #15
  %9 = getelementptr inbounds nuw i8, ptr %0, i64 8
  %10 = getelementptr inbounds nuw i8, ptr %0, i64 304
  call void @llvm.lifetime.start.p0(i64 16, ptr nonnull %4) #15
  call void @mbedtls_mpi_init(ptr noundef nonnull %4) #15
  %11 = call i32 @mbedtls_mpi_lset(ptr noundef nonnull %4, i64 noundef 1) #15
  %.not.i = icmp eq i32 %11, 0
  br i1 %.not.i, label %12, label %ecjpake_ecp_add3.exit.thread

12:                                               ; preds = %3
  %13 = getelementptr inbounds nuw i8, ptr %0, i64 256
  %14 = getelementptr inbounds nuw i8, ptr %0, i64 208
  %15 = call i32 @mbedtls_ecp_muladd(ptr noundef nonnull %9, ptr noundef nonnull %7, ptr noundef nonnull %4, ptr noundef nonnull %14, ptr noundef nonnull %4, ptr noundef nonnull %13) #15
  %.not10.i = icmp eq i32 %15, 0
  br i1 %.not10.i, label %ecjpake_ecp_add3.exit, label %ecjpake_ecp_add3.exit.thread

ecjpake_ecp_add3.exit.thread:                     ; preds = %3, %12
  %.0.i.ph = phi i32 [ %15, %12 ], [ %11, %3 ]
  call void @mbedtls_mpi_free(ptr noundef nonnull %4) #15
  call void @llvm.lifetime.end.p0(i64 16, ptr nonnull %4) #15
  br label %39

ecjpake_ecp_add3.exit:                            ; preds = %12
  %16 = call i32 @mbedtls_ecp_muladd(ptr noundef nonnull %9, ptr noundef nonnull %7, ptr noundef nonnull %4, ptr noundef nonnull %7, ptr noundef nonnull %4, ptr noundef nonnull %10) #15
  call void @mbedtls_mpi_free(ptr noundef nonnull %4) #15
  call void @llvm.lifetime.end.p0(i64 16, ptr nonnull %4) #15
  %.not = icmp eq i32 %16, 0
  br i1 %.not, label %17, label %39

17:                                               ; preds = %ecjpake_ecp_add3.exit
  %18 = getelementptr inbounds nuw i8, ptr %0, i64 200
  %19 = load i32, ptr %18, align 8, !tbaa !17
  %20 = icmp eq i32 %19, 0
  br i1 %20, label %21, label %26

21:                                               ; preds = %17
  %22 = call i32 @mbedtls_ecp_tls_read_group(ptr noundef nonnull %6, ptr noundef nonnull %5, i64 noundef %2) #15
  %.not20 = icmp eq i32 %22, 0
  br i1 %.not20, label %23, label %39

23:                                               ; preds = %21
  %24 = load i32, ptr %6, align 8, !tbaa !23
  %25 = load i32, ptr %9, align 8, !tbaa !18
  %.not21 = icmp eq i32 %24, %25
  br i1 %.not21, label %._crit_edge, label %39

._crit_edge:                                      ; preds = %23
  %.pre = load i32, ptr %18, align 8, !tbaa !17
  br label %26

26:                                               ; preds = %._crit_edge, %17
  %27 = phi i32 [ %.pre, %._crit_edge ], [ %19, %17 ]
  %28 = load i32, ptr %0, align 8, !tbaa !3
  %29 = getelementptr inbounds nuw i8, ptr %0, i64 204
  %30 = load i32, ptr %29, align 4, !tbaa !16
  %31 = getelementptr inbounds nuw i8, ptr %0, i64 400
  %32 = sub i32 1, %27
  %33 = zext i32 %32 to i64
  %34 = getelementptr inbounds nuw [2 x ptr], ptr @ecjpake_id, i64 0, i64 %33
  %35 = load ptr, ptr %34, align 8, !tbaa !20
  %36 = call fastcc i32 @ecjpake_kkp_read(i32 noundef %28, ptr noundef nonnull %9, i32 noundef %30, ptr noundef nonnull %7, ptr noundef nonnull %31, ptr noundef %35, ptr noundef %5, ptr noundef %8)
  %.not22 = icmp eq i32 %36, 0
  br i1 %.not22, label %37, label %39

37:                                               ; preds = %26
  %38 = load ptr, ptr %5, align 8, !tbaa !20
  %.not23 = icmp eq ptr %38, %8
  %spec.select = select i1 %.not23, i32 0, i32 -20352
  br label %39

39:                                               ; preds = %ecjpake_ecp_add3.exit.thread, %37, %23, %26, %21, %ecjpake_ecp_add3.exit
  %.0 = phi i32 [ %16, %ecjpake_ecp_add3.exit ], [ %22, %21 ], [ %36, %26 ], [ -20096, %23 ], [ %spec.select, %37 ], [ %.0.i.ph, %ecjpake_ecp_add3.exit.thread ]
  call void @mbedtls_ecp_group_free(ptr noundef nonnull %6) #15
  call void @mbedtls_ecp_point_free(ptr noundef nonnull %7) #15
  call void @llvm.lifetime.end.p0(i64 48, ptr nonnull %7) #15
  call void @llvm.lifetime.end.p0(i64 192, ptr nonnull %6) #15
  call void @llvm.lifetime.end.p0(i64 8, ptr nonnull %5) #15
  ret i32 %.0
}